target datalayout = "e-m:e-p270:32:32-p271:32:32-p272:64:64-i64:64-i128:128-f80:128-n8:16:32:64-S128"
target triple = "x86_64-pc-linux-gnu"

%struct.pmix_mca_base_framework_t = type { ptr, ptr, ptr, ptr, ptr, ptr, i32, i32, ptr, ptr, i32, i32, %struct.pmix_list_t, %struct.pmix_list_t }
%struct.pmix_list_t = type { %struct.pmix_object_t, %struct.pmix_list_item_t, i64 }
%struct.pmix_object_t = type { %union.pthread_mutex_t, ptr, i32, %struct.pmix_tma }
%union.pthread_mutex_t = type { %struct.__pthread_mutex_s }
%struct.__pthread_mutex_s = type { i32, i32, i32, i32, i32, i16, i16, %struct.__pthread_internal_list }
%struct.__pthread_internal_list = type { ptr, ptr }
%struct.pmix_tma = type { ptr, ptr, ptr, ptr, ptr, ptr, ptr, ptr }
%struct.pmix_list_item_t = type { %struct.pmix_object_t, ptr, ptr, i32 }
%struct.pmix_output_desc_t = type { i8, i8, i32, i8, i32, ptr, ptr, i32, ptr, i32, i8, i8, i8, i8, ptr, i32, i32 }
%struct.pmix_bfrop_type_info_t = type { %struct.pmix_object_t, i16, ptr, ptr, ptr, ptr, ptr }
%struct.pmix_pointer_array_t = type { %struct.pmix_object_t, i32, i32, i32, i32, i32, ptr, ptr }
%struct.pmix_envar_t = type { ptr, ptr, i8 }

@pmix_bfrops_base_framework = external global %struct.pmix_mca_base_framework_t, align 8
@pmix_output_info = external global [0 x %struct.pmix_output_desc_t], align 8
@.str.30 = private unnamed_addr constant [29 x i8] c"pmix_bfrop_unpack: %d envars\00", align 1

; Function Attrs: inlinehint nounwind uwtable
define internal ptr @pmix_pointer_array_get_item(ptr noundef %0, i32 noundef %1) #3 {
  %3 = alloca ptr, align 8
  %4 = alloca ptr, align 8
  %5 = alloca i32, align 4
  %6 = alloca ptr, align 8
  %7 = alloca i32, align 4
  store ptr %0, ptr %4, align 8, !tbaa !3
  store i32 %1, ptr %5, align 4, !tbaa !13
  call void @llvm.lifetime.start.p0(i64 8, ptr %6) #11
  %8 = load i32, ptr %5, align 4, !tbaa !13
  %9 = icmp sgt i32 0, %8
  br i1 %9, label %16, label %10

10:                                               ; preds = %2
  %11 = load ptr, ptr %4, align 8, !tbaa !3
  %12 = getelementptr inbounds nuw %struct.pmix_pointer_array_t, ptr %11, i32 0, i32 3
  %13 = load i32, ptr %12, align 8, !tbaa !33
  %14 = load i32, ptr %5, align 4, !tbaa !13
  %15 = icmp sle i32 %13, %14
  br label %16

16:                                               ; preds = %10, %2
  %17 = phi i1 [ true, %2 ], [ %15, %10 ]
  %18 = xor i1 %17, true
  %19 = xor i1 %18, true
  %20 = zext i1 %19 to i32
  %21 = sext i32 %20 to i64
  %22 = call i64 @llvm.expect.i64(i64 %21, i64 0)
  %23 = icmp ne i64 %22, 0
  br i1 %23, label %24, label %25

24:                                               ; preds = %16
  store ptr null, ptr %3, align 8
  store i32 1, ptr %7, align 4
  br label %34

25:                                               ; preds = %16
  %26 = load ptr, ptr %4, align 8, !tbaa !3
  %27 = getelementptr inbounds nuw %struct.pmix_pointer_array_t, ptr %26, i32 0, i32 7
  %28 = load ptr, ptr %27, align 8, !tbaa !36
  %29 = load i32, ptr %5, align 4, !tbaa !13
  %30 = sext i32 %29 to i64
  %31 = getelementptr inbounds ptr, ptr %28, i64 %30
  %32 = load ptr, ptr %31, align 8, !tbaa !8
  store ptr %32, ptr %6, align 8, !tbaa !8
  %33 = load ptr, ptr %6, align 8, !tbaa !8
  store ptr %33, ptr %3, align 8
  store i32 1, ptr %7, align 4
  br label %34

34:                                               ; preds = %25, %24
  call void @llvm.lifetime.end.p0(i64 8, ptr %6) #11
  %35 = load ptr, ptr %3, align 8
  ret ptr %35
}

; Function Attrs: nounwind uwtable
define i32 @pmix_bfrops_base_unpack_envar(ptr noundef %0, ptr noundef %1, ptr noundef %2, ptr noundef %3, i16 noundef zeroext %4) #0 {
  %6 = alloca i32, align 4
  %7 = alloca ptr, align 8
  %8 = alloca ptr, align 8
  %9 = alloca ptr, align 8
  %10 = alloca ptr, align 8
  %11 = alloca i16, align 2
  %12 = alloca ptr, align 8
  %13 = alloca i32, align 4
  %14 = alloca i32, align 4
  %15 = alloca i32, align 4
  %16 = alloca i32, align 4
  %17 = alloca ptr, align 8
  %18 = alloca i32, align 4
  %19 = alloca ptr, align 8
  %20 = alloca ptr, align 8
  store ptr %0, ptr %7, align 8, !tbaa !3
  store ptr %1, ptr %8, align 8, !tbaa !8
  store ptr %2, ptr %9, align 8, !tbaa !8
  store ptr %3, ptr %10, align 8, !tbaa !9
  store i16 %4, ptr %11, align 2, !tbaa !11
  call void @llvm.lifetime.start.p0(i64 8, ptr %12) #11
  call void @llvm.lifetime.start.p0(i64 4, ptr %13) #11
  call void @llvm.lifetime.start.p0(i64 4, ptr %14) #11
  call void @llvm.lifetime.start.p0(i64 4, ptr %15) #11
  call void @llvm.lifetime.start.p0(i64 4, ptr %16) #11
  %21 = load i32, ptr getelementptr inbounds nuw (%struct.pmix_mca_base_framework_t, ptr @pmix_bfrops_base_framework, i32 0, i32 11), align 4, !tbaa !15
  %22 = icmp sge i32 %21, 0
  br i1 %22, label %23, label %37

23:                                               ; preds = %5
  %24 = load i32, ptr getelementptr inbounds nuw (%struct.pmix_mca_base_framework_t, ptr @pmix_bfrops_base_framework, i32 0, i32 11), align 4, !tbaa !15
  %25 = icmp slt i32 %24, 64
  br i1 %25, label %26, label %37

26:                                               ; preds = %23
  %27 = load i32, ptr getelementptr inbounds nuw (%struct.pmix_mca_base_framework_t, ptr @pmix_bfrops_base_framework, i32 0, i32 11), align 4, !tbaa !15
  %28 = sext i32 %27 to i64
  %29 = getelementptr inbounds [0 x %struct.pmix_output_desc_t], ptr @pmix_output_info, i64 0, i64 %28
  %30 = getelementptr inbounds nuw %struct.pmix_output_desc_t, ptr %29, i32 0, i32 2
  %31 = load i32, ptr %30, align 4, !tbaa !26
  %32 = icmp sge i32 %31, 20
  br i1 %32, label %33, label %37

33:                                               ; preds = %26
  %34 = load i32, ptr getelementptr inbounds nuw (%struct.pmix_mca_base_framework_t, ptr @pmix_bfrops_base_framework, i32 0, i32 11), align 4, !tbaa !15
  %35 = load ptr, ptr %10, align 8, !tbaa !9
  %36 = load i32, ptr %35, align 4, !tbaa !13
  call void (i32, ptr, ...) @pmix_output(i32 noundef %34, ptr noundef @.str.30, i32 noundef %36)
  br label %37

37:                                               ; preds = %33, %26, %23, %5
  %38 = load ptr, ptr %9, align 8, !tbaa !8
  store ptr %38, ptr %12, align 8, !tbaa !8
  %39 = load ptr, ptr %10, align 8, !tbaa !9
  %40 = load i32, ptr %39, align 4, !tbaa !13
  store i32 %40, ptr %14, align 4, !tbaa !13
  store i32 0, ptr %13, align 4, !tbaa !13
  br label %41

41:                                               ; preds = %128, %37
  %42 = load i32, ptr %13, align 4, !tbaa !13
  %43 = load i32, ptr %14, align 4, !tbaa !13
  %44 = icmp slt i32 %42, %43
  br i1 %44, label %45, label %131

45:                                               ; preds = %41
  %46 = load ptr, ptr %12, align 8, !tbaa !8
  %47 = load i32, ptr %13, align 4, !tbaa !13
  %48 = sext i32 %47 to i64
  %49 = getelementptr inbounds %struct.pmix_envar_t, ptr %46, i64 %48
  call void @PMIx_Envar_construct(ptr noundef %49)
  store i32 1, ptr %15, align 4, !tbaa !13
  br label %50

50:                                               ; preds = %45
  call void @llvm.lifetime.start.p0(i64 8, ptr %17) #11
  %51 = load ptr, ptr %7, align 8, !tbaa !3
  %52 = call ptr @pmix_pointer_array_get_item(ptr noundef %51, i32 noundef 3)
  store ptr %52, ptr %17, align 8, !tbaa !8
  %53 = load ptr, ptr %17, align 8, !tbaa !8
  %54 = icmp eq ptr null, %53
  br i1 %54, label %55, label %56

55:                                               ; preds = %50
  store i32 -16, ptr %16, align 4, !tbaa !13
  br label %68

56:                                               ; preds = %50
  %57 = load ptr, ptr %17, align 8, !tbaa !8
  %58 = getelementptr inbounds nuw %struct.pmix_bfrop_type_info_t, ptr %57, i32 0, i32 4
  %59 = load ptr, ptr %58, align 8, !tbaa !31
  %60 = load ptr, ptr %7, align 8, !tbaa !3
  %61 = load ptr, ptr %8, align 8, !tbaa !8
  %62 = load ptr, ptr %12, align 8, !tbaa !8
  %63 = load i32, ptr %13, align 4, !tbaa !13
  %64 = sext i32 %63 to i64
  %65 = getelementptr inbounds %struct.pmix_envar_t, ptr %62, i64 %64
  %66 = getelementptr inbounds nuw %struct.pmix_envar_t, ptr %65, i32 0, i32 0
  %67 = call i32 %59(ptr noundef %60, ptr noundef %61, ptr noundef %66, ptr noundef %15, i16 noundef zeroext 3)
  store i32 %67, ptr %16, align 4, !tbaa !13
  br label %68

68:                                               ; preds = %56, %55
  call void @llvm.lifetime.end.p0(i64 8, ptr %17) #11
  br label %69

69:                                               ; preds = %68
  br label %70

70:                                               ; preds = %69
  %71 = load i32, ptr %16, align 4, !tbaa !13
  %72 = icmp ne i32 0, %71
  br i1 %72, label %73, label %75

73:                                               ; preds = %70
  %74 = load i32, ptr %16, align 4, !tbaa !13
  store i32 %74, ptr %6, align 4
  store i32 1, ptr %18, align 4
  br label %132

75:                                               ; preds = %70
  store i32 1, ptr %15, align 4, !tbaa !13
  br label %76

76:                                               ; preds = %75
  call void @llvm.lifetime.start.p0(i64 8, ptr %19) #11
  %77 = load ptr, ptr %7, align 8, !tbaa !3
  %78 = call ptr @pmix_pointer_array_get_item(ptr noundef %77, i32 noundef 3)
  store ptr %78, ptr %19, align 8, !tbaa !8
  %79 = load ptr, ptr %19, align 8, !tbaa !8
  %80 = icmp eq ptr null, %79
  br i1 %80, label %81, label %82

81:                                               ; preds = %76
  store i32 -16, ptr %16, align 4, !tbaa !13
  br label %94

82:                                               ; preds = %76
  %83 = load ptr, ptr %19, align 8, !tbaa !8
  %84 = getelementptr inbounds nuw %struct.pmix_bfrop_type_info_t, ptr %83, i32 0, i32 4
  %85 = load ptr, ptr %84, align 8, !tbaa !31
  %86 = load ptr, ptr %7, align 8, !tbaa !3
  %87 = load ptr, ptr %8, align 8, !tbaa !8
  %88 = load ptr, ptr %12, align 8, !tbaa !8
  %89 = load i32, ptr %13, align 4, !tbaa !13
  %90 = sext i32 %89 to i64
  %91 = getelementptr inbounds %struct.pmix_envar_t, ptr %88, i64 %90
  %92 = getelementptr inbounds nuw %struct.pmix_envar_t, ptr %91, i32 0, i32 1
  %93 = call i32 %85(ptr noundef %86, ptr noundef %87, ptr noundef %92, ptr noundef %15, i16 noundef zeroext 3)
  store i32 %93, ptr %16, align 4, !tbaa !13
  br label %94

94:                                               ; preds = %82, %81
  call void @llvm.lifetime.end.p0(i64 8, ptr %19) #11
  br label %95

95:                                               ; preds = %94
  br label %96

96:                                               ; preds = %95
  %97 = load i32, ptr %16, align 4, !tbaa !13
  %98 = icmp ne i32 0, %97
  br i1 %98, label %99, label %101

99:                                               ; preds = %96
  %100 = load i32, ptr %16, align 4, !tbaa !13
  store i32 %100, ptr %6, align 4
  store i32 1, ptr %18, align 4
  br label %132

101:                                              ; preds = %96
  store i32 1, ptr %15, align 4, !tbaa !13
  br label %102

102:                                              ; preds = %101
  call void @llvm.lifetime.start.p0(i64 8, ptr %20) #11
  %103 = load ptr, ptr %7, align 8, !tbaa !3
  %104 = call ptr @pmix_pointer_array_get_item(ptr noundef %103, i32 noundef 2)
  store ptr %104, ptr %20, align 8, !tbaa !8
  %105 = load ptr, ptr %20, align 8, !tbaa !8
  %106 = icmp eq ptr null, %105
  br i1 %106, label %107, label %108

107:                                              ; preds = %102
  store i32 -16, ptr %16, align 4, !tbaa !13
  br label %120

108:                                              ; preds = %102
  %109 = load ptr, ptr %20, align 8, !tbaa !8
  %110 = getelementptr inbounds nuw %struct.pmix_bfrop_type_info_t, ptr %109, i32 0, i32 4
  %111 = load ptr, ptr %110, align 8, !tbaa !31
  %112 = load ptr, ptr %7, align 8, !tbaa !3
  %113 = load ptr, ptr %8, align 8, !tbaa !8
  %114 = load ptr, ptr %12, align 8, !tbaa !8
  %115 = load i32, ptr %13, align 4, !tbaa !13
  %116 = sext i32 %115 to i64
  %117 = getelementptr inbounds %struct.pmix_envar_t, ptr %114, i64 %116
  %118 = getelementptr inbounds nuw %struct.pmix_envar_t, ptr %117, i32 0, i32 2
  %119 = call i32 %111(ptr noundef %112, ptr noundef %113, ptr noundef %118, ptr noundef %15, i16 noundef zeroext 2)
  store i32 %119, ptr %16, align 4, !tbaa !13
  br label %120

120:                                              ; preds = %108, %107
  call void @llvm.lifetime.end.p0(i64 8, ptr %20) #11
  br label %121

121:                                              ; preds = %120
  br label %122

122:                                              ; preds = %121
  %123 = load i32, ptr %16, align 4, !tbaa !13
  %124 = icmp ne i32 0, %123
  br i1 %124, label %125, label %127

125:                                              ; preds = %122
  %126 = load i32, ptr %16, align 4, !tbaa !13
  store i32 %126, ptr %6, align 4
  store i32 1, ptr %18, align 4
  br label %132

127:                                              ; preds = %122
  br label %128

128:                                              ; preds = %127
  %129 = load i32, ptr %13, align 4, !tbaa !13
  %130 = add nsw i32 %129, 1
  store i32 %130, ptr %13, align 4, !tbaa !13
  br label %41, !llvm.loop !174

131:                                              ; preds = %41
  store i32 0, ptr %6, align 4
  store i32 1, ptr %18, align 4
  br label %132

132:                                              ; preds = %131, %125, %99, %73
  call void @llvm.lifetime.end.p0(i64 4, ptr %16) #11
  call void @llvm.lifetime.end.p0(i64 4, ptr %15) #11
  call void @llvm.lifetime.end.p0(i64 4, ptr %14) #11
  call void @llvm.lifetime.end.p0(i64 4, ptr %13) #11
  call void @llvm.lifetime.end.p0(i64 8, ptr %12) #11
  %133 = load i32, ptr %6, align 4
  ret i32 %133
}