; Function Attrs: nounwind uwtable
define i32 @pmix_bfrops_base_unpack_envar(ptr noundef %0, ptr noundef %1, ptr noundef %2, ptr noundef readonly captures(none) %3, i16 noundef zeroext %4) local_unnamed_addr #0 {
  %6 = alloca i32, align 4
  call void @llvm.lifetime.start.p0(i64 4, ptr nonnull %6) #10
  %7 = load i32, ptr getelementptr inbounds nuw (i8, ptr @pmix_bfrops_base_framework, i64 76), align 4, !tbaa !7
  %or.cond = icmp ult i32 %7, 64
  br i1 %or.cond, label %8, label %15

8:                                                ; preds = %5
  %9 = zext nneg i32 %7 to i64
  %10 = getelementptr inbounds nuw [0 x %struct.pmix_output_desc_t], ptr @pmix_output_info, i64 0, i64 %9, i32 2
  %11 = load i32, ptr %10, align 4, !tbaa !19
  %12 = icmp sgt i32 %11, 19
  br i1 %12, label %13, label %15

13:                                               ; preds = %8
  %14 = load i32, ptr %3, align 4, !tbaa !3
  tail call void (i32, ptr, ...) @pmix_output(i32 noundef %7, ptr noundef nonnull @.str.30, i32 noundef %14) #10
  br label %15

15:                                               ; preds = %13, %8, %5
  %16 = load i32, ptr %3, align 4, !tbaa !3
  %17 = getelementptr inbounds nuw i8, ptr %0, i64 152
  %18 = icmp sgt i32 %16, 0
  br i1 %18, label %.lr.ph, label %.thread

.lr.ph:                                           ; preds = %15
  %19 = getelementptr inbounds nuw i8, ptr %0, i64 128
  %wide.trip.count = zext nneg i32 %16 to i64
  br label %21

20:                                               ; preds = %49
  %indvars.iv.next = add nuw nsw i64 %indvars.iv, 1
  %exitcond.not = icmp eq i64 %indvars.iv.next, %wide.trip.count
  br i1 %exitcond.not, label %.thread, label %21, !llvm.loop !119

21:                                               ; preds = %.lr.ph, %20
  %indvars.iv = phi i64 [ 0, %.lr.ph ], [ %indvars.iv.next, %20 ]
  %22 = getelementptr inbounds nuw %struct.pmix_envar_t, ptr %2, i64 %indvars.iv
  call void @PMIx_Envar_construct(ptr noundef %22) #10
  store i32 1, ptr %6, align 4, !tbaa !3
  %23 = load i32, ptr %19, align 8, !tbaa !26
  %.not.i = icmp sgt i32 %23, 3
  br i1 %.not.i, label %pmix_pointer_array_get_item.exit, label %.thread, !prof !29

pmix_pointer_array_get_item.exit:                 ; preds = %21
  %24 = load ptr, ptr %17, align 8, !tbaa !30
  %25 = getelementptr inbounds nuw i8, ptr %24, i64 24
  %26 = load ptr, ptr %25, align 8, !tbaa !31
  %27 = icmp eq ptr %26, null
  br i1 %27, label %.thread, label %28

28:                                               ; preds = %pmix_pointer_array_get_item.exit
  %29 = getelementptr inbounds nuw i8, ptr %26, i64 144
  %30 = load ptr, ptr %29, align 8, !tbaa !32
  %31 = call i32 %30(ptr noundef nonnull %0, ptr noundef %1, ptr noundef %22, ptr noundef nonnull %6, i16 noundef zeroext 3) #10
  %.not = icmp eq i32 %31, 0
  br i1 %.not, label %32, label %.thread

32:                                               ; preds = %28
  store i32 1, ptr %6, align 4, !tbaa !3
  %33 = load i32, ptr %19, align 8, !tbaa !26
  %.not.i44 = icmp sgt i32 %33, 3
  br i1 %.not.i44, label %pmix_pointer_array_get_item.exit46, label %.thread, !prof !29

pmix_pointer_array_get_item.exit46:               ; preds = %32
  %34 = load ptr, ptr %17, align 8, !tbaa !30
  %35 = getelementptr inbounds nuw i8, ptr %34, i64 24
  %36 = load ptr, ptr %35, align 8, !tbaa !31
  %37 = icmp eq ptr %36, null
  br i1 %37, label %.thread, label %38

38:                                               ; preds = %pmix_pointer_array_get_item.exit46
  %39 = getelementptr inbounds nuw i8, ptr %36, i64 144
  %40 = load ptr, ptr %39, align 8, !tbaa !32
  %41 = getelementptr inbounds nuw i8, ptr %22, i64 8
  %42 = call i32 %40(ptr noundef nonnull %0, ptr noundef %1, ptr noundef nonnull %41, ptr noundef nonnull %6, i16 noundef zeroext 3) #10
  %.not42 = icmp eq i32 %42, 0
  br i1 %.not42, label %43, label %.thread

43:                                               ; preds = %38
  store i32 1, ptr %6, align 4, !tbaa !3
  %44 = load i32, ptr %19, align 8, !tbaa !26
  %.not.i47 = icmp sgt i32 %44, 2
  br i1 %.not.i47, label %pmix_pointer_array_get_item.exit49, label %.thread, !prof !29

pmix_pointer_array_get_item.exit49:               ; preds = %43
  %45 = load ptr, ptr %17, align 8, !tbaa !30
  %46 = getelementptr inbounds nuw i8, ptr %45, i64 16
  %47 = load ptr, ptr %46, align 8, !tbaa !31
  %48 = icmp eq ptr %47, null
  br i1 %48, label %.thread, label %49

49:                                               ; preds = %pmix_pointer_array_get_item.exit49
  %50 = getelementptr inbounds nuw i8, ptr %47, i64 144
  %51 = load ptr, ptr %50, align 8, !tbaa !32
  %52 = getelementptr inbounds nuw i8, ptr %22, i64 16
  %53 = call i32 %51(ptr noundef nonnull %0, ptr noundef %1, ptr noundef nonnull %52, ptr noundef nonnull %6, i16 noundef zeroext 2) #10
  %.not43 = icmp eq i32 %53, 0
  br i1 %.not43, label %20, label %.thread

.thread:                                          ; preds = %28, %38, %49, %20, %pmix_pointer_array_get_item.exit, %21, %pmix_pointer_array_get_item.exit46, %32, %pmix_pointer_array_get_item.exit49, %43, %15
  %.0 = phi i32 [ 0, %15 ], [ -16, %43 ], [ -16, %pmix_pointer_array_get_item.exit49 ], [ -16, %32 ], [ -16, %pmix_pointer_array_get_item.exit46 ], [ -16, %21 ], [ -16, %pmix_pointer_array_get_item.exit ], [ 0, %20 ], [ %53, %49 ], [ %42, %38 ], [ %31, %28 ]
  call void @llvm.lifetime.end.p0(i64 4, ptr nonnull %6) #10
  ret i32 %.0
}